target datalayout = "e-m:e-p270:32:32-p271:32:32-p272:64:64-i64:64-i128:128-f80:128-n8:16:32:64-S128"
target triple = "x86_64-pc-linux-gnu"

%struct._zend_executor_globals = type { %struct._zval_struct, %struct._zval_struct, [32 x ptr], ptr, ptr, %struct._zend_array, %struct._zend_array, ptr, i32, i32, ptr, ptr, ptr, ptr, ptr, ptr, i64, ptr, ptr, i32, i32, i64, i32, i32, i32, i8, i8, %struct.zend_atomic_bool_s, %struct.zend_atomic_bool_s, ptr, i64, ptr, ptr, %struct._zend_array, %struct._zend_array, i32, i8, %struct._zval_struct, %struct._zval_struct, %struct._zend_stack, %struct._zend_stack, %struct._zend_stack, ptr, i32, i32, i64, ptr, ptr, ptr, %struct._zend_objects_store, ptr, ptr, ptr, [3 x %struct._zend_op], ptr, i8, i8, i64, i32, i32, ptr, [16 x %struct._HashTableIterator], ptr, %union._zend_function, %struct._zend_op, %struct._zend_array, i64, %struct.zend_get_gc_buffer, ptr, ptr, ptr, i64, i8, i32, ptr, ptr, i64, %struct._zend_call_stack, i64, i64, [6 x ptr] }
%struct.zend_atomic_bool_s = type { i8 }
%struct._zval_struct = type { %union._zend_value, %union.anon, %union.anon.2 }
%union._zend_value = type { i64 }
%union.anon = type { i32 }
%union.anon.2 = type { i32 }
%struct._zend_stack = type { i32, i32, i32, ptr }
%struct._zend_objects_store = type { ptr, i32, i32, i32 }
%struct._HashTableIterator = type { ptr, i32, i32 }
%union._zend_function = type { %struct._zend_op_array }
%struct._zend_op_array = type { i8, [3 x i8], i32, ptr, ptr, ptr, i32, i32, ptr, ptr, ptr, ptr, i32, i32, i32, i32, ptr, ptr, ptr, ptr, ptr, i32, i32, ptr, ptr, ptr, i32, i32, i32, i32, ptr, ptr, [6 x ptr] }
%struct._zend_op = type { ptr, %union._znode_op, %union._znode_op, %union._znode_op, i32, i32, i8, i8, i8, i8 }
%union._znode_op = type { i32 }
%struct._zend_array = type { %struct._zend_refcounted_h, %union.anon.4, i32, %union.anon.6, i32, i32, i32, i32, i64, ptr }
%struct._zend_refcounted_h = type { i32, %union.anon.3 }
%union.anon.3 = type { i32 }
%union.anon.4 = type { i32 }
%union.anon.6 = type { ptr }
%struct.zend_get_gc_buffer = type { ptr, ptr, ptr }
%struct._zend_call_stack = type { ptr, i64 }
%struct._zend_execute_data = type { ptr, ptr, ptr, ptr, %struct._zval_struct, ptr, ptr, ptr, ptr }
%struct._spl_array_object = type { %struct._zval_struct, i32, i32, i8, i8, ptr, ptr, ptr, ptr, ptr, ptr, ptr, %struct._zend_object }
%struct._zend_object = type { %struct._zend_refcounted_h, i32, ptr, ptr, ptr, [1 x %struct._zval_struct] }

@executor_globals = external global %struct._zend_executor_globals, align 8
@.str.5 = private unnamed_addr constant [2 x i8] c"A\00", align 1
@.str.6 = private unnamed_addr constant [57 x i8] c"Modification of ArrayObject during sorting is prohibited\00", align 1

; Function Attrs: nounwind uwtable
define internal ptr @spl_array_get_hash_table_ptr(ptr noundef %0) #0 {
  %2 = alloca ptr, align 8
  %3 = alloca ptr, align 8
  %4 = alloca ptr, align 8
  %5 = alloca i32, align 4
  %6 = alloca ptr, align 8
  %7 = alloca ptr, align 8
  %8 = alloca ptr, align 8
  %9 = alloca ptr, align 8
  store ptr %0, ptr %7, align 8
  %10 = load ptr, ptr %7, align 8
  %11 = getelementptr inbounds %struct._spl_array_object, ptr %10, i32 0, i32 2
  %12 = load i32, ptr %11, align 4
  %13 = and i32 %12, 16777216
  %14 = icmp ne i32 %13, 0
  br i1 %14, label %15, label %28

15:                                               ; preds = %1
  %16 = load ptr, ptr %7, align 8
  %17 = getelementptr inbounds %struct._spl_array_object, ptr %16, i32 0, i32 12
  %18 = getelementptr inbounds %struct._zend_object, ptr %17, i32 0, i32 4
  %19 = load ptr, ptr %18, align 8
  %20 = icmp ne ptr %19, null
  br i1 %20, label %24, label %21

21:                                               ; preds = %15
  %22 = load ptr, ptr %7, align 8
  %23 = getelementptr inbounds %struct._spl_array_object, ptr %22, i32 0, i32 12
  call void @rebuild_object_properties(ptr noundef %23)
  br label %24

24:                                               ; preds = %21, %15
  %25 = load ptr, ptr %7, align 8
  %26 = getelementptr inbounds %struct._spl_array_object, ptr %25, i32 0, i32 12
  %27 = getelementptr inbounds %struct._zend_object, ptr %26, i32 0, i32 4
  store ptr %27, ptr %6, align 8
  br label %112

28:                                               ; preds = %1
  %29 = load ptr, ptr %7, align 8
  %30 = getelementptr inbounds %struct._spl_array_object, ptr %29, i32 0, i32 2
  %31 = load i32, ptr %30, align 4
  %32 = and i32 %31, 33554432
  %33 = icmp ne i32 %32, 0
  br i1 %33, label %34, label %42

34:                                               ; preds = %28
  %35 = load ptr, ptr %7, align 8
  %36 = getelementptr inbounds %struct._spl_array_object, ptr %35, i32 0, i32 0
  %37 = getelementptr inbounds %struct._zval_struct, ptr %36, i32 0, i32 0
  %38 = load ptr, ptr %37, align 8
  %39 = call ptr @spl_array_from_obj(ptr noundef %38)
  store ptr %39, ptr %8, align 8
  %40 = load ptr, ptr %8, align 8
  %41 = call ptr @spl_array_get_hash_table_ptr(ptr noundef %40)
  store ptr %41, ptr %6, align 8
  br label %112

42:                                               ; preds = %28
  %43 = load ptr, ptr %7, align 8
  %44 = getelementptr inbounds %struct._spl_array_object, ptr %43, i32 0, i32 0
  store ptr %44, ptr %4, align 8
  %45 = load ptr, ptr %4, align 8
  %46 = getelementptr inbounds %struct._zval_struct, ptr %45, i32 0, i32 1
  %47 = load i8, ptr %46, align 8
  %48 = zext i8 %47 to i32
  %49 = icmp eq i32 %48, 7
  br i1 %49, label %50, label %54

50:                                               ; preds = %42
  %51 = load ptr, ptr %7, align 8
  %52 = getelementptr inbounds %struct._spl_array_object, ptr %51, i32 0, i32 0
  %53 = getelementptr inbounds %struct._zval_struct, ptr %52, i32 0, i32 0
  store ptr %53, ptr %6, align 8
  br label %112

54:                                               ; preds = %42
  %55 = load ptr, ptr %7, align 8
  %56 = getelementptr inbounds %struct._spl_array_object, ptr %55, i32 0, i32 0
  %57 = getelementptr inbounds %struct._zval_struct, ptr %56, i32 0, i32 0
  %58 = load ptr, ptr %57, align 8
  store ptr %58, ptr %9, align 8
  %59 = load ptr, ptr %9, align 8
  %60 = getelementptr inbounds %struct._zend_object, ptr %59, i32 0, i32 4
  %61 = load ptr, ptr %60, align 8
  %62 = icmp ne ptr %61, null
  br i1 %62, label %65, label %63

63:                                               ; preds = %54
  %64 = load ptr, ptr %9, align 8
  call void @rebuild_object_properties(ptr noundef %64)
  br label %109

65:                                               ; preds = %54
  %66 = load ptr, ptr %9, align 8
  %67 = getelementptr inbounds %struct._zend_object, ptr %66, i32 0, i32 4
  %68 = load ptr, ptr %67, align 8
  %69 = getelementptr inbounds %struct._zend_array, ptr %68, i32 0, i32 0
  store ptr %69, ptr %3, align 8
  %70 = load ptr, ptr %3, align 8
  %71 = load i32, ptr %70, align 4
  %72 = icmp ugt i32 %71, 1
  br i1 %72, label %73, label %108

73:                                               ; preds = %65
  %74 = load ptr, ptr %9, align 8
  %75 = getelementptr inbounds %struct._zend_object, ptr %74, i32 0, i32 4
  %76 = load ptr, ptr %75, align 8
  %77 = getelementptr inbounds %struct._zend_array, ptr %76, i32 0, i32 0
  %78 = getelementptr inbounds %struct._zend_refcounted_h, ptr %77, i32 0, i32 1
  %79 = load i32, ptr %78, align 4
  store i32 %79, ptr %5, align 4
  %80 = load i32, ptr %5, align 4
  %81 = and i32 %80, 1008
  %82 = and i32 %81, 64
  %83 = icmp ne i32 %82, 0
  %84 = xor i1 %83, true
  %85 = xor i1 %84, true
  %86 = xor i1 %85, true
  %87 = zext i1 %86 to i32
  %88 = sext i32 %87 to i64
  %89 = icmp ne i64 %88, 0
  br i1 %89, label %90, label %101

90:                                               ; preds = %73
  %91 = load ptr, ptr %9, align 8
  %92 = getelementptr inbounds %struct._zend_object, ptr %91, i32 0, i32 4
  %93 = load ptr, ptr %92, align 8
  %94 = getelementptr inbounds %struct._zend_array, ptr %93, i32 0, i32 0
  store ptr %94, ptr %2, align 8
  %95 = load ptr, ptr %2, align 8
  %96 = load i32, ptr %95, align 4
  %97 = icmp ugt i32 %96, 0
  call void @llvm.assume(i1 %97)
  %98 = load ptr, ptr %2, align 8
  %99 = load i32, ptr %98, align 4
  %100 = add i32 %99, -1
  store i32 %100, ptr %98, align 4
  br label %101

101:                                              ; preds = %90, %73
  %102 = load ptr, ptr %9, align 8
  %103 = getelementptr inbounds %struct._zend_object, ptr %102, i32 0, i32 4
  %104 = load ptr, ptr %103, align 8
  %105 = call ptr @zend_array_dup(ptr noundef %104)
  %106 = load ptr, ptr %9, align 8
  %107 = getelementptr inbounds %struct._zend_object, ptr %106, i32 0, i32 4
  store ptr %105, ptr %107, align 8
  br label %108

108:                                              ; preds = %101, %65
  br label %109

109:                                              ; preds = %108, %63
  %110 = load ptr, ptr %9, align 8
  %111 = getelementptr inbounds %struct._zend_object, ptr %110, i32 0, i32 4
  store ptr %111, ptr %6, align 8
  br label %112

112:                                              ; preds = %109, %50, %34, %24
  %113 = load ptr, ptr %6, align 8
  ret ptr %113
}

; Function Attrs: nounwind uwtable
define internal ptr @spl_array_get_hash_table(ptr noundef %0) #0 {
  %2 = alloca ptr, align 8
  store ptr %0, ptr %2, align 8
  %3 = load ptr, ptr %2, align 8
  %4 = call ptr @spl_array_get_hash_table_ptr(ptr noundef %3)
  %5 = load ptr, ptr %4, align 8
  ret ptr %5
}

; Function Attrs: nounwind uwtable
define internal ptr @spl_array_from_obj(ptr noundef %0) #0 {
  %2 = alloca ptr, align 8
  store ptr %0, ptr %2, align 8
  %3 = load ptr, ptr %2, align 8
  %4 = getelementptr inbounds i8, ptr %3, i64 -88
  ret ptr %4
}

; Function Attrs: nounwind uwtable
define hidden void @zim_ArrayObject_exchangeArray(ptr noundef %0, ptr noundef %1) #0 {
  %3 = alloca ptr, align 8
  %4 = alloca ptr, align 8
  %5 = alloca ptr, align 8
  %6 = alloca ptr, align 8
  %7 = alloca ptr, align 8
  %8 = alloca ptr, align 8
  %9 = alloca ptr, align 8
  store ptr %0, ptr %3, align 8
  store ptr %1, ptr %4, align 8
  %10 = load ptr, ptr %3, align 8
  %11 = getelementptr inbounds %struct._zend_execute_data, ptr %10, i32 0, i32 4
  store ptr %11, ptr %5, align 8
  %12 = load ptr, ptr %5, align 8
  %13 = getelementptr inbounds %struct._zval_struct, ptr %12, i32 0, i32 0
  %14 = load ptr, ptr %13, align 8
  %15 = call ptr @spl_array_from_obj(ptr noundef %14)
  store ptr %15, ptr %7, align 8
  %16 = load ptr, ptr %3, align 8
  %17 = getelementptr inbounds %struct._zend_execute_data, ptr %16, i32 0, i32 4
  %18 = getelementptr inbounds %struct._zval_struct, ptr %17, i32 0, i32 2
  %19 = load i32, ptr %18, align 4
  %20 = call i32 (i32, ptr, ...) @zend_parse_parameters(i32 noundef %19, ptr noundef @.str.5, ptr noundef %6)
  %21 = icmp eq i32 %20, -1
  br i1 %21, label %22, label %27

22:                                               ; preds = %2
  br label %23

23:                                               ; preds = %22
  %24 = load ptr, ptr getelementptr inbounds (%struct._zend_executor_globals, ptr @executor_globals, i32 0, i32 50), align 8
  %25 = icmp ne ptr %24, null
  call void @llvm.assume(i1 %25)
  br label %53

26:                                               ; No predecessors!
  br label %27

27:                                               ; preds = %26, %2
  %28 = load ptr, ptr %7, align 8
  %29 = getelementptr inbounds %struct._spl_array_object, ptr %28, i32 0, i32 3
  %30 = load i8, ptr %29, align 8
  %31 = zext i8 %30 to i32
  %32 = icmp sgt i32 %31, 0
  br i1 %32, label %33, label %38

33:                                               ; preds = %27
  call void (ptr, ptr, ...) @zend_throw_error(ptr noundef null, ptr noundef @.str.6)
  br label %34

34:                                               ; preds = %33
  %35 = load ptr, ptr getelementptr inbounds (%struct._zend_executor_globals, ptr @executor_globals, i32 0, i32 50), align 8
  %36 = icmp ne ptr %35, null
  call void @llvm.assume(i1 %36)
  br label %53

37:                                               ; No predecessors!
  br label %38

38:                                               ; preds = %37, %27
  br label %39

39:                                               ; preds = %38
  %40 = load ptr, ptr %7, align 8
  %41 = call ptr @spl_array_get_hash_table(ptr noundef %40)
  %42 = call ptr @zend_array_dup(ptr noundef %41)
  store ptr %42, ptr %8, align 8
  %43 = load ptr, ptr %4, align 8
  store ptr %43, ptr %9, align 8
  %44 = load ptr, ptr %8, align 8
  %45 = load ptr, ptr %9, align 8
  %46 = getelementptr inbounds %struct._zval_struct, ptr %45, i32 0, i32 0
  store ptr %44, ptr %46, align 8
  %47 = load ptr, ptr %9, align 8
  %48 = getelementptr inbounds %struct._zval_struct, ptr %47, i32 0, i32 1
  store i32 775, ptr %48, align 8
  br label %49

49:                                               ; preds = %39
  %50 = load ptr, ptr %5, align 8
  %51 = load ptr, ptr %7, align 8
  %52 = load ptr, ptr %6, align 8
  call void @spl_array_set_array(ptr noundef %50, ptr noundef %51, ptr noundef %52, i64 noundef 0, i1 noundef zeroext true)
  br label %53

53:                                               ; preds = %49, %34, %23
  ret void
}