; Function Attrs: nounwind uwtable
define hidden void @zim_ArrayObject_exchangeArray(ptr nocapture noundef readonly %0, ptr nocapture noundef writeonly %1) #0 {
  %3 = alloca ptr, align 8
  %4 = getelementptr inbounds i8, ptr %0, i64 32
  %5 = load ptr, ptr %4, align 8
  %6 = getelementptr inbounds i8, ptr %5, i64 -88
  %7 = getelementptr inbounds i8, ptr %0, i64 44
  %8 = load i32, ptr %7, align 4
  %9 = call i32 (i32, ptr, ...) @zend_parse_parameters(i32 noundef %8, ptr noundef nonnull @.str.5, ptr noundef nonnull %3) #11
  %10 = icmp eq i32 %9, -1
  br i1 %10, label %11, label %14

11:                                               ; preds = %2
  %12 = load ptr, ptr getelementptr inbounds (%struct._zend_executor_globals, ptr @executor_globals, i64 0, i32 50), align 8
  %13 = icmp ne ptr %12, null
  call void @llvm.assume(i1 %13)
  br label %60

14:                                               ; preds = %2
  %15 = getelementptr inbounds i8, ptr %5, i64 -64
  %16 = load i8, ptr %15, align 8
  %.not = icmp eq i8 %16, 0
  br i1 %.not, label %20, label %17

17:                                               ; preds = %14
  call void (ptr, ptr, ...) @zend_throw_error(ptr noundef null, ptr noundef nonnull @.str.6) #11
  %18 = load ptr, ptr getelementptr inbounds (%struct._zend_executor_globals, ptr @executor_globals, i64 0, i32 50), align 8
  %19 = icmp ne ptr %18, null
  call void @llvm.assume(i1 %19)
  br label %60

20:                                               ; preds = %14
  %21 = getelementptr inbounds i8, ptr %5, i64 -68
  %22 = load i32, ptr %21, align 4
  %23 = and i32 %22, 16777216
  %.not30.i.i = icmp eq i32 %23, 0
  br i1 %.not30.i.i, label %.lr.ph.i.i, label %tailrecurse._crit_edge.i.i

tailrecurse._crit_edge.i.i:                       ; preds = %tailrecurse.i.i, %20
  %.tr.lcssa.i.i = phi ptr [ %6, %20 ], [ %31, %tailrecurse.i.i ]
  %24 = getelementptr inbounds i8, ptr %.tr.lcssa.i.i, i64 120
  %25 = load ptr, ptr %24, align 8
  %.not28.i.i = icmp eq ptr %25, null
  br i1 %.not28.i.i, label %26, label %spl_array_get_hash_table.exit

26:                                               ; preds = %tailrecurse._crit_edge.i.i
  %27 = getelementptr inbounds i8, ptr %.tr.lcssa.i.i, i64 88
  call void @rebuild_object_properties(ptr noundef nonnull %27) #11
  br label %spl_array_get_hash_table.exit

.lr.ph.i.i:                                       ; preds = %20, %tailrecurse.i.i
  %28 = phi i32 [ %33, %tailrecurse.i.i ], [ %22, %20 ]
  %.tr31.i.i = phi ptr [ %31, %tailrecurse.i.i ], [ %6, %20 ]
  %29 = and i32 %28, 33554432
  %.not25.i.i = icmp eq i32 %29, 0
  br i1 %.not25.i.i, label %35, label %tailrecurse.i.i

tailrecurse.i.i:                                  ; preds = %.lr.ph.i.i
  %30 = load ptr, ptr %.tr31.i.i, align 8
  %31 = getelementptr inbounds i8, ptr %30, i64 -88
  %32 = getelementptr inbounds i8, ptr %30, i64 -68
  %33 = load i32, ptr %32, align 4
  %34 = and i32 %33, 16777216
  %.not.i.i = icmp eq i32 %34, 0
  br i1 %.not.i.i, label %.lr.ph.i.i, label %tailrecurse._crit_edge.i.i

35:                                               ; preds = %.lr.ph.i.i
  %36 = getelementptr inbounds i8, ptr %.tr31.i.i, i64 8
  %37 = load i8, ptr %36, align 8
  %38 = icmp eq i8 %37, 7
  br i1 %38, label %spl_array_get_hash_table.exit, label %39

39:                                               ; preds = %35
  %40 = load ptr, ptr %.tr31.i.i, align 8
  %41 = getelementptr inbounds i8, ptr %40, i64 32
  %42 = load ptr, ptr %41, align 8
  %.not26.i.i = icmp eq ptr %42, null
  br i1 %.not26.i.i, label %43, label %44

43:                                               ; preds = %39
  call void @rebuild_object_properties(ptr noundef nonnull %40) #11
  br label %spl_array_get_hash_table.exit

44:                                               ; preds = %39
  %45 = load i32, ptr %42, align 4
  %46 = icmp ugt i32 %45, 1
  br i1 %46, label %47, label %spl_array_get_hash_table.exit

47:                                               ; preds = %44
  %48 = getelementptr inbounds i8, ptr %42, i64 4
  %49 = load i32, ptr %48, align 4
  %50 = and i32 %49, 64
  %.not27.i.i = icmp eq i32 %50, 0
  br i1 %.not27.i.i, label %51, label %53

51:                                               ; preds = %47
  %52 = add i32 %45, -1
  store i32 %52, ptr %42, align 4
  %.pre.i.i = load ptr, ptr %41, align 8
  br label %53

53:                                               ; preds = %51, %47
  %54 = phi ptr [ %.pre.i.i, %51 ], [ %42, %47 ]
  %55 = call ptr @zend_array_dup(ptr noundef %54) #11
  store ptr %55, ptr %41, align 8
  br label %spl_array_get_hash_table.exit

spl_array_get_hash_table.exit:                    ; preds = %tailrecurse._crit_edge.i.i, %26, %35, %43, %44, %53
  %.0.i.i = phi ptr [ %24, %26 ], [ %24, %tailrecurse._crit_edge.i.i ], [ %.tr31.i.i, %35 ], [ %41, %44 ], [ %41, %53 ], [ %41, %43 ]
  %56 = load ptr, ptr %.0.i.i, align 8
  %57 = call ptr @zend_array_dup(ptr noundef %56) #11
  store ptr %57, ptr %1, align 8
  %58 = getelementptr inbounds i8, ptr %1, i64 8
  store i32 775, ptr %58, align 8
  %59 = load ptr, ptr %3, align 8
  call fastcc void @spl_array_set_array(ptr noundef nonnull %4, ptr noundef nonnull %6, ptr noundef %59, i64 noundef 0, i1 noundef zeroext true)
  br label %60

60:                                               ; preds = %spl_array_get_hash_table.exit, %17, %11
  ret void
}